target datalayout = "e-m:e-p270:32:32-p271:32:32-p272:64:64-i64:64-i128:128-f80:128-n8:16:32:64-S128"
target triple = "x86_64-pc-linux-gnu"

%struct.FT_Vector_ = type { i64, i64 }
%struct.FT_FaceRec_ = type { i64, i64, i64, i64, i64, ptr, ptr, i32, ptr, i32, ptr, %struct.FT_Generic_, %struct.FT_BBox_, i16, i16, i16, i16, i16, i16, i16, i16, ptr, ptr, ptr, ptr, ptr, ptr, %struct.FT_ListRec_, %struct.FT_Generic_, ptr, ptr }
%struct.FT_BBox_ = type { i64, i64, i64, i64 }
%struct.FT_ListRec_ = type { ptr, ptr }
%struct.FT_Generic_ = type { ptr, ptr }
%struct.FT_GlyphSlotRec_ = type { ptr, ptr, ptr, i32, %struct.FT_Generic_, %struct.FT_Glyph_Metrics_, i64, i64, %struct.FT_Vector_, i32, %struct.FT_Bitmap_, i32, i32, %struct.FT_Outline_, i32, ptr, ptr, i64, i64, i64, ptr, ptr }
%struct.FT_Glyph_Metrics_ = type { i64, i64, i64, i64, i64, i64, i64, i64 }
%struct.FT_Bitmap_ = type { i32, i32, i32, ptr, i16, i8, i8, ptr }
%struct.FT_Outline_ = type { i16, i16, ptr, ptr, ptr, i32 }
%struct.FT_Matrix_ = type { i64, i64, i64, i64 }
%struct.FT_Slot_InternalRec_ = type { ptr, i32, i8, %struct.FT_Matrix_, %struct.FT_Vector_, ptr, i32 }
%struct.FT_MemoryRec_ = type { ptr, ptr, ptr, ptr }

; Function Attrs: nounwind uwtable
define hidden void @ft_mem_free(ptr noundef %0, ptr noundef %1) #0 {
  %3 = alloca ptr, align 8
  %4 = alloca ptr, align 8
  store ptr %0, ptr %3, align 8, !tbaa !185
  store ptr %1, ptr %4, align 8, !tbaa !41
  %5 = load ptr, ptr %4, align 8, !tbaa !41
  %6 = icmp ne ptr %5, null
  br i1 %6, label %7, label %13

7:                                                ; preds = %2
  %8 = load ptr, ptr %3, align 8, !tbaa !185
  %9 = getelementptr inbounds nuw %struct.FT_MemoryRec_, ptr %8, i32 0, i32 2
  %10 = load ptr, ptr %9, align 8, !tbaa !209
  %11 = load ptr, ptr %3, align 8, !tbaa !185
  %12 = load ptr, ptr %4, align 8, !tbaa !41
  call void %10(ptr noundef %11, ptr noundef %12)
  br label %13

13:                                               ; preds = %7, %2
  ret void
}

; Function Attrs: nounwind uwtable
define hidden void @ft_glyphslot_free_bitmap(ptr noundef %0) #0 {
  %2 = alloca ptr, align 8
  %3 = alloca ptr, align 8
  store ptr %0, ptr %2, align 8, !tbaa !67
  %4 = load ptr, ptr %2, align 8, !tbaa !67
  %5 = getelementptr inbounds nuw %struct.FT_GlyphSlotRec_, ptr %4, i32 0, i32 21
  %6 = load ptr, ptr %5, align 8, !tbaa !147
  %7 = icmp ne ptr %6, null
  br i1 %7, label %8, label %39

8:                                                ; preds = %1
  %9 = load ptr, ptr %2, align 8, !tbaa !67
  %10 = getelementptr inbounds nuw %struct.FT_GlyphSlotRec_, ptr %9, i32 0, i32 21
  %11 = load ptr, ptr %10, align 8, !tbaa !147
  %12 = getelementptr inbounds nuw %struct.FT_Slot_InternalRec_, ptr %11, i32 0, i32 1
  %13 = load i32, ptr %12, align 8, !tbaa !285
  %14 = and i32 %13, 1
  %15 = icmp ne i32 %14, 0
  br i1 %15, label %16, label %39

16:                                               ; preds = %8
  call void @llvm.lifetime.start.p0(i64 8, ptr %3) #10
  %17 = load ptr, ptr %2, align 8, !tbaa !67
  %18 = getelementptr inbounds nuw %struct.FT_GlyphSlotRec_, ptr %17, i32 0, i32 1
  %19 = load ptr, ptr %18, align 8, !tbaa !286
  %20 = getelementptr inbounds nuw %struct.FT_FaceRec_, ptr %19, i32 0, i32 25
  %21 = load ptr, ptr %20, align 8, !tbaa !287
  store ptr %21, ptr %3, align 8, !tbaa !185
  br label %22

22:                                               ; preds = %16
  %23 = load ptr, ptr %3, align 8, !tbaa !185
  %24 = load ptr, ptr %2, align 8, !tbaa !67
  %25 = getelementptr inbounds nuw %struct.FT_GlyphSlotRec_, ptr %24, i32 0, i32 10
  %26 = getelementptr inbounds nuw %struct.FT_Bitmap_, ptr %25, i32 0, i32 3
  %27 = load ptr, ptr %26, align 8, !tbaa !288
  call void @ft_mem_free(ptr noundef %23, ptr noundef %27)
  %28 = load ptr, ptr %2, align 8, !tbaa !67
  %29 = getelementptr inbounds nuw %struct.FT_GlyphSlotRec_, ptr %28, i32 0, i32 10
  %30 = getelementptr inbounds nuw %struct.FT_Bitmap_, ptr %29, i32 0, i32 3
  store ptr null, ptr %30, align 8, !tbaa !288
  br label %31

31:                                               ; preds = %22
  br label %32

32:                                               ; preds = %31
  %33 = load ptr, ptr %2, align 8, !tbaa !67
  %34 = getelementptr inbounds nuw %struct.FT_GlyphSlotRec_, ptr %33, i32 0, i32 21
  %35 = load ptr, ptr %34, align 8, !tbaa !147
  %36 = getelementptr inbounds nuw %struct.FT_Slot_InternalRec_, ptr %35, i32 0, i32 1
  %37 = load i32, ptr %36, align 8, !tbaa !285
  %38 = and i32 %37, -2
  store i32 %38, ptr %36, align 8, !tbaa !285
  call void @llvm.lifetime.end.p0(i64 8, ptr %3) #10
  br label %43

39:                                               ; preds = %8, %1
  %40 = load ptr, ptr %2, align 8, !tbaa !67
  %41 = getelementptr inbounds nuw %struct.FT_GlyphSlotRec_, ptr %40, i32 0, i32 10
  %42 = getelementptr inbounds nuw %struct.FT_Bitmap_, ptr %41, i32 0, i32 3
  store ptr null, ptr %42, align 8, !tbaa !288
  br label %43

43:                                               ; preds = %39, %32
  ret void
}

; Function Attrs: nounwind uwtable
define hidden void @ft_glyphslot_set_bitmap(ptr noundef %0, ptr noundef %1) #0 {
  %3 = alloca ptr, align 8
  %4 = alloca ptr, align 8
  store ptr %0, ptr %3, align 8, !tbaa !67
  store ptr %1, ptr %4, align 8, !tbaa !183
  %5 = load ptr, ptr %3, align 8, !tbaa !67
  call void @ft_glyphslot_free_bitmap(ptr noundef %5)
  %6 = load ptr, ptr %4, align 8, !tbaa !183
  %7 = load ptr, ptr %3, align 8, !tbaa !67
  %8 = getelementptr inbounds nuw %struct.FT_GlyphSlotRec_, ptr %7, i32 0, i32 10
  %9 = getelementptr inbounds nuw %struct.FT_Bitmap_, ptr %8, i32 0, i32 3
  store ptr %6, ptr %9, align 8, !tbaa !288
  br label %10

10:                                               ; preds = %2
  br label %11

11:                                               ; preds = %10
  ret void
}