; Function Attrs: nounwind uwtable
define hidden void @ft_glyphslot_set_bitmap(ptr noundef captures(none) %0, ptr noundef %1) local_unnamed_addr #0 {
  %3 = getelementptr inbounds nuw i8, ptr %0, i64 296
  %4 = load ptr, ptr %3, align 8, !tbaa !54
  %.not.i = icmp eq ptr %4, null
  br i1 %.not.i, label %ft_glyphslot_free_bitmap.exit, label %5

5:                                                ; preds = %2
  %6 = getelementptr inbounds nuw i8, ptr %4, i64 8
  %7 = load i32, ptr %6, align 8, !tbaa !55
  %8 = and i32 %7, 1
  %.not8.i = icmp eq i32 %8, 0
  br i1 %.not8.i, label %ft_glyphslot_free_bitmap.exit, label %9

9:                                                ; preds = %5
  %10 = getelementptr inbounds nuw i8, ptr %0, i64 168
  %11 = load ptr, ptr %10, align 8, !tbaa !58
  %.not.i.i = icmp eq ptr %11, null
  br i1 %.not.i.i, label %ft_mem_free.exit.i, label %12

12:                                               ; preds = %9
  %13 = getelementptr inbounds nuw i8, ptr %0, i64 8
  %14 = load ptr, ptr %13, align 8, !tbaa !59
  %15 = getelementptr inbounds nuw i8, ptr %14, i64 184
  %16 = load ptr, ptr %15, align 8, !tbaa !60
  %17 = getelementptr inbounds nuw i8, ptr %16, i64 16
  %18 = load ptr, ptr %17, align 8, !tbaa !61
  tail call void %18(ptr noundef %16, ptr noundef nonnull %11) #34
  %.pre.i = load ptr, ptr %3, align 8, !tbaa !54
  %.phi.trans.insert.i = getelementptr inbounds nuw i8, ptr %.pre.i, i64 8
  %.pre9.i = load i32, ptr %.phi.trans.insert.i, align 8, !tbaa !55
  br label %ft_mem_free.exit.i

ft_mem_free.exit.i:                               ; preds = %12, %9
  %19 = phi i32 [ %7, %9 ], [ %.pre9.i, %12 ]
  %20 = phi ptr [ %4, %9 ], [ %.pre.i, %12 ]
  %21 = getelementptr inbounds nuw i8, ptr %20, i64 8
  %22 = and i32 %19, -2
  store i32 %22, ptr %21, align 8, !tbaa !55
  br label %ft_glyphslot_free_bitmap.exit

ft_glyphslot_free_bitmap.exit:                    ; preds = %2, %5, %ft_mem_free.exit.i
  %23 = getelementptr inbounds nuw i8, ptr %0, i64 168
  store ptr %1, ptr %23, align 8, !tbaa !58
  ret void
}